; Function Attrs: mustprogress nounwind uwtable
define noundef ptr @_ZN8nanobind6detail20nb_type_put_unique_pEPKSt9type_infoS3_PvPNS0_12cleanup_listEb(ptr noundef %0, ptr noundef %1, ptr noundef %2, ptr noundef %3, i1 noundef zeroext %4) local_unnamed_addr #5 personality ptr @__gxx_personality_v0 {
  %6 = alloca i8, align 1
  %7 = select i1 %4, i32 2, i32 7
  call void @llvm.lifetime.start.p0(i64 1, ptr nonnull %6) #29
  store i8 0, ptr %6, align 1
  %8 = call noundef ptr @_ZN8nanobind6detail13nb_type_put_pEPKSt9type_infoS3_PvNS_9rv_policyEPNS0_12cleanup_listEPb(ptr noundef %0, ptr noundef %1, ptr noundef %2, i32 noundef %7, ptr noundef %3, ptr noundef nonnull %6) #29
  %.not = icmp eq ptr %8, null
  br i1 %.not, label %33, label %9

9:                                                ; preds = %5
  %10 = load i8, ptr %6, align 1, !range !56, !noundef !57
  %11 = trunc nuw i8 %10 to i1
  %.not.i = xor i1 %4, true
  %12 = and i1 %.not.i, %11
  br i1 %12, label %13, label %14, !prof !4

13:                                               ; preds = %9
  call void @_ZN8nanobind6detail16fail_unspecifiedEv() #30
  unreachable

14:                                               ; preds = %9
  %15 = getelementptr inbounds nuw i8, ptr %8, i64 20
  %16 = load i32, ptr %15, align 4
  %17 = and i32 %16, 3
  br i1 %4, label %18, label %29

18:                                               ; preds = %14
  %19 = select i1 %11, i32 2, i32 1
  %20 = icmp eq i32 %17, %19
  br i1 %20, label %21, label %.critedge.i, !prof !3

21:                                               ; preds = %18
  %22 = and i32 %16, 16
  %23 = icmp eq i32 %22, 0
  %24 = xor i1 %23, %11
  br i1 %24, label %25, label %.critedge.i, !prof !3

25:                                               ; preds = %21
  %26 = and i32 %16, 32
  %27 = icmp ne i32 %26, 0
  %28 = xor i1 %27, %11
  br i1 %28, label %.critedge.i, label %_ZN8nanobind6detailL27nb_type_put_unique_finalizeEP7_objectPKSt9type_infobb.exit, !prof !4

.critedge.i:                                      ; preds = %25, %21, %18
  call void @_ZN8nanobind6detail16fail_unspecifiedEv() #30
  unreachable

29:                                               ; preds = %14
  %.not14.i = icmp eq i32 %17, 1
  br i1 %.not14.i, label %_ZN8nanobind6detailL27nb_type_put_unique_finalizeEP7_objectPKSt9type_infobb.exit, label %30, !prof !3

30:                                               ; preds = %29
  call void @_ZN8nanobind6detail16fail_unspecifiedEv() #30
  unreachable

_ZN8nanobind6detailL27nb_type_put_unique_finalizeEP7_objectPKSt9type_infobb.exit: ; preds = %25, %29
  %.sink.i = phi i32 [ -52, %25 ], [ -4, %29 ]
  %.sink2.i = phi i32 [ 50, %25 ], [ 2, %29 ]
  %31 = and i32 %.sink.i, %16
  %32 = or disjoint i32 %31, %.sink2.i
  store i32 %32, ptr %15, align 4
  br label %33

33:                                               ; preds = %_ZN8nanobind6detailL27nb_type_put_unique_finalizeEP7_objectPKSt9type_infobb.exit, %5
  call void @llvm.lifetime.end.p0(i64 1, ptr nonnull %6) #29
  ret ptr %8
}